; Function Attrs: mustprogress uwtable
define void @_ZNK8facebook5velox19IntervalDayTimeType13valueToStringB5cxx11El(ptr noalias sret(%"class.std::__cxx11::basic_string") align 8 %agg.result, ptr nocapture noundef nonnull readnone align 8 dereferenceable(17) %this, i64 noundef %value) local_unnamed_addr #0 align 2 personality ptr @__gxx_personality_v0 {
entry:
  %buf = alloca [64 x i8], align 16
  %ref.tmp = alloca %"class.std::allocator.2", align 1
  %div = sdiv i64 %value, 86400000
  %mul.neg = mul nsw i64 %div, -86400000
  %sub = add i64 %mul.neg, %value
  %div2 = sdiv i64 %sub, 3600000
  %mul3.neg = mul nsw i64 %div2, -3600000
  %sub4 = add i64 %mul3.neg, %sub
  %div5 = sdiv i64 %sub4, 60000
  %mul6.neg = mul nsw i64 %div5, -60000
  %sub7 = add i64 %mul6.neg, %sub4
  %div8 = sdiv i64 %sub7, 1000
  %mul9.neg = mul nsw i64 %div8, -1000
  %sub10 = add i64 %mul9.neg, %sub7
  %call = call i32 (ptr, i64, ptr, ...) @snprintf(ptr noundef nonnull dereferenceable(1) %buf, i64 noundef 64, ptr noundef nonnull @.str.45, i64 noundef %div, i64 noundef %div2, i64 noundef %div5, i64 noundef %div8, i64 noundef %sub10) #37
  call void @_ZNSaIcEC1Ev(ptr noundef nonnull align 1 dereferenceable(1) %ref.tmp) #37
  %call.i13 = invoke noundef ptr @_ZNSt7__cxx1112basic_stringIcSt11char_traitsIcESaIcEE13_M_local_dataEv(ptr noundef nonnull align 8 dereferenceable(32) %agg.result)
          to label %call.i.noexc unwind label %lpad

call.i.noexc:                                     ; preds = %entry
  invoke void @_ZNSt7__cxx1112basic_stringIcSt11char_traitsIcESaIcEE12_Alloc_hiderC1EPcRKS3_(ptr noundef nonnull align 8 dereferenceable(8) %agg.result, ptr noundef %call.i13, ptr noundef nonnull align 1 dereferenceable(1) %ref.tmp)
          to label %.noexc unwind label %lpad

.noexc:                                           ; preds = %call.i.noexc
  %call.i.i = call noundef i64 @strlen(ptr noundef nonnull dereferenceable(1) %buf) #37
  %add.ptr.i = getelementptr inbounds i8, ptr %buf, i64 %call.i.i
  invoke void @_ZNSt7__cxx1112basic_stringIcSt11char_traitsIcESaIcEE12_M_constructIPKcEEvT_S8_St20forward_iterator_tag(ptr noundef nonnull align 8 dereferenceable(32) %agg.result, ptr noundef nonnull %buf, ptr noundef nonnull %add.ptr.i)
          to label %invoke.cont unwind label %lpad.i

lpad.i:                                           ; preds = %.noexc
  %0 = landingpad { ptr, i32 }
          cleanup
  call void @_ZNSaIcED2Ev(ptr noundef nonnull align 1 dereferenceable(1) %agg.result) #37
  br label %lpad.body

invoke.cont:                                      ; preds = %.noexc
  call void @_ZNSaIcED1Ev(ptr noundef nonnull align 1 dereferenceable(1) %ref.tmp) #37
  ret void

lpad:                                             ; preds = %call.i.noexc, %entry
  %1 = landingpad { ptr, i32 }
          cleanup
  br label %lpad.body

lpad.body:                                        ; preds = %lpad.i, %lpad
  %eh.lpad-body = phi { ptr, i32 } [ %1, %lpad ], [ %0, %lpad.i ]
  call void @_ZNSaIcED1Ev(ptr noundef nonnull align 1 dereferenceable(1) %ref.tmp) #37
  resume { ptr, i32 } %eh.lpad-body
}